; Function Attrs: nounwind uwtable
define internal range(i32 0, 2) i32 @IoCommandWriteStatus(ptr noundef readonly captures(none) %0, i32 noundef %1, ptr noundef %2) #0 {
  tail call void (...) @Extra_UtilGetoptReset() #18
  %4 = tail call i32 @Extra_UtilGetopt(i32 noundef %1, ptr noundef %2, ptr noundef nonnull @.str.165) #18
  %.not = icmp eq i32 %4, -1
  br i1 %.not, label %5, label %18

5:                                                ; preds = %3
  %6 = load i32, ptr @globalUtilOptind, align 4, !tbaa !3
  %7 = add nsw i32 %6, 1
  %.not12 = icmp eq i32 %1, %7
  br i1 %.not12, label %8, label %18

8:                                                ; preds = %5
  %9 = sext i32 %6 to i64
  %10 = getelementptr inbounds ptr, ptr %2, i64 %9
  %11 = load ptr, ptr %10, align 8, !tbaa !9
  %12 = getelementptr inbounds nuw i8, ptr %0, i64 352
  %13 = load ptr, ptr %12, align 8, !tbaa !52
  %14 = getelementptr inbounds nuw i8, ptr %0, i64 400
  %15 = load i32, ptr %14, align 8, !tbaa !51
  %16 = getelementptr inbounds nuw i8, ptr %0, i64 404
  %17 = load i32, ptr %16, align 4, !tbaa !118
  tail call void @Abc_NtkWriteLogFile(ptr noundef %11, ptr noundef %13, i32 noundef %15, i32 noundef %17, ptr noundef null) #18
  br label %28

18:                                               ; preds = %5, %3
  %19 = getelementptr inbounds nuw i8, ptr %0, i64 136
  %20 = load ptr, ptr %19, align 8, !tbaa !34
  %21 = tail call i64 @fwrite(ptr nonnull @.str.394, i64 32, i64 1, ptr %20)
  %22 = load ptr, ptr %19, align 8, !tbaa !34
  %23 = tail call i64 @fwrite(ptr nonnull @.str.395, i64 39, i64 1, ptr %22)
  %24 = load ptr, ptr %19, align 8, !tbaa !34
  %25 = tail call i64 @fwrite(ptr nonnull @.str.233, i64 33, i64 1, ptr %24)
  %26 = load ptr, ptr %19, align 8, !tbaa !34
  %27 = tail call i64 @fwrite(ptr nonnull @.str.234, i64 40, i64 1, ptr %26)
  br label %28

28:                                               ; preds = %18, %8
  %.0 = phi i32 [ 1, %18 ], [ 0, %8 ]
  ret i32 %.0
}